target datalayout = "e-m:e-p270:32:32-p271:32:32-p272:64:64-i64:64-i128:128-f80:128-n8:16:32:64-S128"
target triple = "x86_64-pc-linux-gnu"

%struct.PartitionKeyData = type { i32, i16, ptr, ptr, ptr, ptr, ptr, ptr, ptr, ptr, ptr, ptr, ptr, ptr }
%struct.PartitionBoundInfoData = type { i32, i32, ptr, ptr, ptr, i32, ptr, i32, i32 }

; Function Attrs: nounwind uwtable
define dso_local ptr @partition_bounds_copy(ptr noundef %0, ptr noundef %1) #0 {
  %3 = alloca ptr, align 8
  %4 = alloca ptr, align 8
  %5 = alloca ptr, align 8
  %6 = alloca i32, align 4
  %7 = alloca i32, align 4
  %8 = alloca i32, align 4
  %9 = alloca i32, align 4
  %10 = alloca i8, align 1
  %11 = alloca i32, align 4
  %12 = alloca ptr, align 8
  %13 = alloca ptr, align 8
  %14 = alloca i32, align 4
  %15 = alloca i8, align 1
  %16 = alloca i32, align 4
  store ptr %0, ptr %3, align 8
  store ptr %1, ptr %4, align 8
  call void @llvm.lifetime.start.p0(i64 8, ptr %5) #9
  call void @llvm.lifetime.start.p0(i64 4, ptr %6) #9
  call void @llvm.lifetime.start.p0(i64 4, ptr %7) #9
  call void @llvm.lifetime.start.p0(i64 4, ptr %8) #9
  call void @llvm.lifetime.start.p0(i64 4, ptr %9) #9
  call void @llvm.lifetime.start.p0(i64 1, ptr %10) #9
  call void @llvm.lifetime.start.p0(i64 4, ptr %11) #9
  call void @llvm.lifetime.start.p0(i64 8, ptr %12) #9
  %17 = call ptr @palloc(i64 noundef 56)
  store ptr %17, ptr %5, align 8
  %18 = load ptr, ptr %3, align 8
  %19 = getelementptr inbounds nuw %struct.PartitionBoundInfoData, ptr %18, i32 0, i32 0
  %20 = load i32, ptr %19, align 8
  %21 = load ptr, ptr %5, align 8
  %22 = getelementptr inbounds nuw %struct.PartitionBoundInfoData, ptr %21, i32 0, i32 0
  store i32 %20, ptr %22, align 8
  %23 = load ptr, ptr %3, align 8
  %24 = getelementptr inbounds nuw %struct.PartitionBoundInfoData, ptr %23, i32 0, i32 1
  %25 = load i32, ptr %24, align 4
  %26 = load ptr, ptr %5, align 8
  %27 = getelementptr inbounds nuw %struct.PartitionBoundInfoData, ptr %26, i32 0, i32 1
  store i32 %25, ptr %27, align 4
  store i32 %25, ptr %7, align 4
  %28 = load ptr, ptr %3, align 8
  %29 = getelementptr inbounds nuw %struct.PartitionBoundInfoData, ptr %28, i32 0, i32 5
  %30 = load i32, ptr %29, align 8
  %31 = load ptr, ptr %5, align 8
  %32 = getelementptr inbounds nuw %struct.PartitionBoundInfoData, ptr %31, i32 0, i32 5
  store i32 %30, ptr %32, align 8
  store i32 %30, ptr %8, align 4
  %33 = load ptr, ptr %4, align 8
  %34 = getelementptr inbounds nuw %struct.PartitionKeyData, ptr %33, i32 0, i32 1
  %35 = load i16, ptr %34, align 4
  %36 = sext i16 %35 to i32
  store i32 %36, ptr %9, align 4
  %37 = load i32, ptr %7, align 4
  %38 = sext i32 %37 to i64
  %39 = mul i64 8, %38
  %40 = call ptr @palloc(i64 noundef %39)
  %41 = load ptr, ptr %5, align 8
  %42 = getelementptr inbounds nuw %struct.PartitionBoundInfoData, ptr %41, i32 0, i32 2
  store ptr %40, ptr %42, align 8
  %43 = load ptr, ptr %3, align 8
  %44 = getelementptr inbounds nuw %struct.PartitionBoundInfoData, ptr %43, i32 0, i32 3
  %45 = load ptr, ptr %44, align 8
  %46 = icmp ne ptr %45, null
  br i1 %46, label %47, label %98

47:                                               ; preds = %2
  call void @llvm.lifetime.start.p0(i64 8, ptr %13) #9
  %48 = load i32, ptr %7, align 4
  %49 = sext i32 %48 to i64
  %50 = mul i64 %49, 8
  %51 = call ptr @palloc(i64 noundef %50)
  %52 = load ptr, ptr %5, align 8
  %53 = getelementptr inbounds nuw %struct.PartitionBoundInfoData, ptr %52, i32 0, i32 3
  store ptr %51, ptr %53, align 8
  %54 = load i32, ptr %7, align 4
  %55 = load i32, ptr %9, align 4
  %56 = mul i32 %54, %55
  %57 = sext i32 %56 to i64
  %58 = mul i64 %57, 4
  %59 = call ptr @palloc(i64 noundef %58)
  store ptr %59, ptr %13, align 8
  store i32 0, ptr %6, align 4
  br label %60

60:                                               ; preds = %94, %47
  %61 = load i32, ptr %6, align 4
  %62 = load i32, ptr %7, align 4
  %63 = icmp slt i32 %61, %62
  br i1 %63, label %64, label %97

64:                                               ; preds = %60
  %65 = load ptr, ptr %13, align 8
  %66 = load i32, ptr %6, align 4
  %67 = load i32, ptr %9, align 4
  %68 = mul i32 %66, %67
  %69 = sext i32 %68 to i64
  %70 = getelementptr inbounds i32, ptr %65, i64 %69
  %71 = load ptr, ptr %5, align 8
  %72 = getelementptr inbounds nuw %struct.PartitionBoundInfoData, ptr %71, i32 0, i32 3
  %73 = load ptr, ptr %72, align 8
  %74 = load i32, ptr %6, align 4
  %75 = sext i32 %74 to i64
  %76 = getelementptr inbounds ptr, ptr %73, i64 %75
  store ptr %70, ptr %76, align 8
  %77 = load ptr, ptr %5, align 8
  %78 = getelementptr inbounds nuw %struct.PartitionBoundInfoData, ptr %77, i32 0, i32 3
  %79 = load ptr, ptr %78, align 8
  %80 = load i32, ptr %6, align 4
  %81 = sext i32 %80 to i64
  %82 = getelementptr inbounds ptr, ptr %79, i64 %81
  %83 = load ptr, ptr %82, align 8
  %84 = load ptr, ptr %3, align 8
  %85 = getelementptr inbounds nuw %struct.PartitionBoundInfoData, ptr %84, i32 0, i32 3
  %86 = load ptr, ptr %85, align 8
  %87 = load i32, ptr %6, align 4
  %88 = sext i32 %87 to i64
  %89 = getelementptr inbounds ptr, ptr %86, i64 %88
  %90 = load ptr, ptr %89, align 8
  %91 = load i32, ptr %9, align 4
  %92 = sext i32 %91 to i64
  %93 = mul i64 4, %92
  call void @llvm.memcpy.p0.p0.i64(ptr align 4 %83, ptr align 4 %90, i64 %93, i1 false)
  br label %94

94:                                               ; preds = %64
  %95 = load i32, ptr %6, align 4
  %96 = add i32 %95, 1
  store i32 %96, ptr %6, align 4
  br label %60, !llvm.loop !31

97:                                               ; preds = %60
  call void @llvm.lifetime.end.p0(i64 8, ptr %13) #9
  br label %101

98:                                               ; preds = %2
  %99 = load ptr, ptr %5, align 8
  %100 = getelementptr inbounds nuw %struct.PartitionBoundInfoData, ptr %99, i32 0, i32 3
  store ptr null, ptr %100, align 8
  br label %101

101:                                              ; preds = %98, %97
  %102 = load ptr, ptr %3, align 8
  %103 = getelementptr inbounds nuw %struct.PartitionBoundInfoData, ptr %102, i32 0, i32 4
  %104 = load ptr, ptr %103, align 8
  %105 = call ptr @bms_copy(ptr noundef %104)
  %106 = load ptr, ptr %5, align 8
  %107 = getelementptr inbounds nuw %struct.PartitionBoundInfoData, ptr %106, i32 0, i32 4
  store ptr %105, ptr %107, align 8
  %108 = load ptr, ptr %4, align 8
  %109 = getelementptr inbounds nuw %struct.PartitionKeyData, ptr %108, i32 0, i32 0
  %110 = load i32, ptr %109, align 8
  %111 = icmp eq i32 %110, 104
  %112 = zext i1 %111 to i8
  store i8 %112, ptr %10, align 1
  %113 = load i8, ptr %10, align 1, !range !6, !noundef !7
  %114 = trunc i8 %113 to i1
  br i1 %114, label %115, label %116

115:                                              ; preds = %101
  br label %118

116:                                              ; preds = %101
  %117 = load i32, ptr %9, align 4
  br label %118

118:                                              ; preds = %116, %115
  %119 = phi i32 [ 2, %115 ], [ %117, %116 ]
  store i32 %119, ptr %11, align 4
  %120 = load i32, ptr %7, align 4
  %121 = load i32, ptr %11, align 4
  %122 = mul i32 %120, %121
  %123 = sext i32 %122 to i64
  %124 = mul i64 %123, 8
  %125 = call ptr @palloc(i64 noundef %124)
  store ptr %125, ptr %12, align 8
  store i32 0, ptr %6, align 4
  br label %126

126:                                              ; preds = %218, %118
  %127 = load i32, ptr %6, align 4
  %128 = load i32, ptr %7, align 4
  %129 = icmp slt i32 %127, %128
  br i1 %129, label %130, label %221

130:                                              ; preds = %126
  call void @llvm.lifetime.start.p0(i64 4, ptr %14) #9
  %131 = load ptr, ptr %12, align 8
  %132 = load i32, ptr %6, align 4
  %133 = load i32, ptr %11, align 4
  %134 = mul i32 %132, %133
  %135 = sext i32 %134 to i64
  %136 = getelementptr inbounds i64, ptr %131, i64 %135
  %137 = load ptr, ptr %5, align 8
  %138 = getelementptr inbounds nuw %struct.PartitionBoundInfoData, ptr %137, i32 0, i32 2
  %139 = load ptr, ptr %138, align 8
  %140 = load i32, ptr %6, align 4
  %141 = sext i32 %140 to i64
  %142 = getelementptr inbounds ptr, ptr %139, i64 %141
  store ptr %136, ptr %142, align 8
  store i32 0, ptr %14, align 4
  br label %143

143:                                              ; preds = %214, %130
  %144 = load i32, ptr %14, align 4
  %145 = load i32, ptr %11, align 4
  %146 = icmp slt i32 %144, %145
  br i1 %146, label %147, label %217

147:                                              ; preds = %143
  call void @llvm.lifetime.start.p0(i64 1, ptr %15) #9
  call void @llvm.lifetime.start.p0(i64 4, ptr %16) #9
  %148 = load i8, ptr %10, align 1, !range !6, !noundef !7
  %149 = trunc i8 %148 to i1
  br i1 %149, label %150, label %151

150:                                              ; preds = %147
  store i32 4, ptr %16, align 4
  store i8 1, ptr %15, align 1
  br label %169

151:                                              ; preds = %147
  %152 = load ptr, ptr %4, align 8
  %153 = getelementptr inbounds nuw %struct.PartitionKeyData, ptr %152, i32 0, i32 11
  %154 = load ptr, ptr %153, align 8
  %155 = load i32, ptr %14, align 4
  %156 = sext i32 %155 to i64
  %157 = getelementptr inbounds i8, ptr %154, i64 %156
  %158 = load i8, ptr %157, align 1, !range !6, !noundef !7
  %159 = trunc i8 %158 to i1
  %160 = zext i1 %159 to i8
  store i8 %160, ptr %15, align 1
  %161 = load ptr, ptr %4, align 8
  %162 = getelementptr inbounds nuw %struct.PartitionKeyData, ptr %161, i32 0, i32 10
  %163 = load ptr, ptr %162, align 8
  %164 = load i32, ptr %14, align 4
  %165 = sext i32 %164 to i64
  %166 = getelementptr inbounds i16, ptr %163, i64 %165
  %167 = load i16, ptr %166, align 2
  %168 = sext i16 %167 to i32
  store i32 %168, ptr %16, align 4
  br label %169

169:                                              ; preds = %151, %150
  %170 = load ptr, ptr %5, align 8
  %171 = getelementptr inbounds nuw %struct.PartitionBoundInfoData, ptr %170, i32 0, i32 3
  %172 = load ptr, ptr %171, align 8
  %173 = icmp eq ptr %172, null
  br i1 %173, label %187, label %174

174:                                              ; preds = %169
  %175 = load ptr, ptr %5, align 8
  %176 = getelementptr inbounds nuw %struct.PartitionBoundInfoData, ptr %175, i32 0, i32 3
  %177 = load ptr, ptr %176, align 8
  %178 = load i32, ptr %6, align 4
  %179 = sext i32 %178 to i64
  %180 = getelementptr inbounds ptr, ptr %177, i64 %179
  %181 = load ptr, ptr %180, align 8
  %182 = load i32, ptr %14, align 4
  %183 = sext i32 %182 to i64
  %184 = getelementptr inbounds i32, ptr %181, i64 %183
  %185 = load i32, ptr %184, align 4
  %186 = icmp eq i32 %185, 0
  br i1 %186, label %187, label %213

187:                                              ; preds = %174, %169
  %188 = load ptr, ptr %3, align 8
  %189 = getelementptr inbounds nuw %struct.PartitionBoundInfoData, ptr %188, i32 0, i32 2
  %190 = load ptr, ptr %189, align 8
  %191 = load i32, ptr %6, align 4
  %192 = sext i32 %191 to i64
  %193 = getelementptr inbounds ptr, ptr %190, i64 %192
  %194 = load ptr, ptr %193, align 8
  %195 = load i32, ptr %14, align 4
  %196 = sext i32 %195 to i64
  %197 = getelementptr inbounds i64, ptr %194, i64 %196
  %198 = load i64, ptr %197, align 8
  %199 = load i8, ptr %15, align 1, !range !6, !noundef !7
  %200 = trunc i8 %199 to i1
  %201 = load i32, ptr %16, align 4
  %202 = call i64 @datumCopy(i64 noundef %198, i1 noundef zeroext %200, i32 noundef %201)
  %203 = load ptr, ptr %5, align 8
  %204 = getelementptr inbounds nuw %struct.PartitionBoundInfoData, ptr %203, i32 0, i32 2
  %205 = load ptr, ptr %204, align 8
  %206 = load i32, ptr %6, align 4
  %207 = sext i32 %206 to i64
  %208 = getelementptr inbounds ptr, ptr %205, i64 %207
  %209 = load ptr, ptr %208, align 8
  %210 = load i32, ptr %14, align 4
  %211 = sext i32 %210 to i64
  %212 = getelementptr inbounds i64, ptr %209, i64 %211
  store i64 %202, ptr %212, align 8
  br label %213

213:                                              ; preds = %187, %174
  call void @llvm.lifetime.end.p0(i64 4, ptr %16) #9
  call void @llvm.lifetime.end.p0(i64 1, ptr %15) #9
  br label %214

214:                                              ; preds = %213
  %215 = load i32, ptr %14, align 4
  %216 = add i32 %215, 1
  store i32 %216, ptr %14, align 4
  br label %143, !llvm.loop !32

217:                                              ; preds = %143
  call void @llvm.lifetime.end.p0(i64 4, ptr %14) #9
  br label %218

218:                                              ; preds = %217
  %219 = load i32, ptr %6, align 4
  %220 = add i32 %219, 1
  store i32 %220, ptr %6, align 4
  br label %126, !llvm.loop !33

221:                                              ; preds = %126
  %222 = load i32, ptr %8, align 4
  %223 = sext i32 %222 to i64
  %224 = mul i64 4, %223
  %225 = call ptr @palloc(i64 noundef %224)
  %226 = load ptr, ptr %5, align 8
  %227 = getelementptr inbounds nuw %struct.PartitionBoundInfoData, ptr %226, i32 0, i32 6
  store ptr %225, ptr %227, align 8
  %228 = load ptr, ptr %5, align 8
  %229 = getelementptr inbounds nuw %struct.PartitionBoundInfoData, ptr %228, i32 0, i32 6
  %230 = load ptr, ptr %229, align 8
  %231 = load ptr, ptr %3, align 8
  %232 = getelementptr inbounds nuw %struct.PartitionBoundInfoData, ptr %231, i32 0, i32 6
  %233 = load ptr, ptr %232, align 8
  %234 = load i32, ptr %8, align 4
  %235 = sext i32 %234 to i64
  %236 = mul i64 4, %235
  call void @llvm.memcpy.p0.p0.i64(ptr align 4 %230, ptr align 4 %233, i64 %236, i1 false)
  %237 = load ptr, ptr %3, align 8
  %238 = getelementptr inbounds nuw %struct.PartitionBoundInfoData, ptr %237, i32 0, i32 7
  %239 = load i32, ptr %238, align 8
  %240 = load ptr, ptr %5, align 8
  %241 = getelementptr inbounds nuw %struct.PartitionBoundInfoData, ptr %240, i32 0, i32 7
  store i32 %239, ptr %241, align 8
  %242 = load ptr, ptr %3, align 8
  %243 = getelementptr inbounds nuw %struct.PartitionBoundInfoData, ptr %242, i32 0, i32 8
  %244 = load i32, ptr %243, align 4
  %245 = load ptr, ptr %5, align 8
  %246 = getelementptr inbounds nuw %struct.PartitionBoundInfoData, ptr %245, i32 0, i32 8
  store i32 %244, ptr %246, align 4
  %247 = load ptr, ptr %5, align 8
  call void @llvm.lifetime.end.p0(i64 8, ptr %12) #9
  call void @llvm.lifetime.end.p0(i64 4, ptr %11) #9
  call void @llvm.lifetime.end.p0(i64 1, ptr %10) #9
  call void @llvm.lifetime.end.p0(i64 4, ptr %9) #9
  call void @llvm.lifetime.end.p0(i64 4, ptr %8) #9
  call void @llvm.lifetime.end.p0(i64 4, ptr %7) #9
  call void @llvm.lifetime.end.p0(i64 4, ptr %6) #9
  call void @llvm.lifetime.end.p0(i64 8, ptr %5) #9
  ret ptr %247
}