; Function Attrs: nounwind uwtable
define dso_local noundef ptr @partition_bounds_copy(ptr noundef readonly captures(none) %0, ptr noundef readonly captures(none) %1) local_unnamed_addr #0 {
  %3 = tail call ptr @palloc(i64 noundef 56) #12
  %4 = load i32, ptr %0, align 8
  store i32 %4, ptr %3, align 8
  %5 = getelementptr inbounds nuw i8, ptr %0, i64 4
  %6 = load i32, ptr %5, align 4
  %7 = getelementptr inbounds nuw i8, ptr %3, i64 4
  store i32 %6, ptr %7, align 4
  %8 = getelementptr inbounds nuw i8, ptr %0, i64 32
  %9 = load i32, ptr %8, align 8
  %10 = getelementptr inbounds nuw i8, ptr %3, i64 32
  store i32 %9, ptr %10, align 8
  %11 = getelementptr inbounds nuw i8, ptr %1, i64 4
  %12 = load i16, ptr %11, align 4
  %13 = sext i16 %12 to i32
  %14 = sext i32 %6 to i64
  %15 = shl nsw i64 %14, 3
  %16 = tail call ptr @palloc(i64 noundef %15) #12
  %17 = getelementptr inbounds nuw i8, ptr %3, i64 8
  store ptr %16, ptr %17, align 8
  %18 = getelementptr inbounds nuw i8, ptr %0, i64 16
  %19 = load ptr, ptr %18, align 8
  %.not = icmp eq ptr %19, null
  br i1 %.not, label %43, label %20

20:                                               ; preds = %2
  %21 = tail call ptr @palloc(i64 noundef %15) #12
  %22 = getelementptr inbounds nuw i8, ptr %3, i64 16
  store ptr %21, ptr %22, align 8
  %23 = mul i32 %6, %13
  %24 = sext i32 %23 to i64
  %25 = shl nsw i64 %24, 2
  %26 = tail call ptr @palloc(i64 noundef %25) #12
  %27 = icmp sgt i32 %6, 0
  br i1 %27, label %.lr.ph, label %.loopexit

.lr.ph:                                           ; preds = %20
  %28 = sext i16 %12 to i64
  %29 = shl nsw i64 %28, 2
  %wide.trip.count = zext nneg i32 %6 to i64
  br label %30

30:                                               ; preds = %.lr.ph, %30
  %indvars.iv = phi i64 [ 0, %.lr.ph ], [ %indvars.iv.next, %30 ]
  %31 = trunc nuw nsw i64 %indvars.iv to i32
  %32 = mul i32 %31, %13
  %33 = sext i32 %32 to i64
  %34 = getelementptr inbounds i32, ptr %26, i64 %33
  %35 = load ptr, ptr %22, align 8
  %36 = getelementptr inbounds nuw ptr, ptr %35, i64 %indvars.iv
  store ptr %34, ptr %36, align 8
  %37 = load ptr, ptr %22, align 8
  %38 = getelementptr inbounds nuw ptr, ptr %37, i64 %indvars.iv
  %39 = load ptr, ptr %38, align 8
  %40 = load ptr, ptr %18, align 8
  %41 = getelementptr inbounds nuw ptr, ptr %40, i64 %indvars.iv
  %42 = load ptr, ptr %41, align 8
  tail call void @llvm.memcpy.p0.p0.i64(ptr align 4 %39, ptr align 4 %42, i64 %29, i1 false)
  %indvars.iv.next = add nuw nsw i64 %indvars.iv, 1
  %exitcond.not = icmp eq i64 %indvars.iv.next, %wide.trip.count
  br i1 %exitcond.not, label %.loopexit, label %30, !llvm.loop !33

43:                                               ; preds = %2
  %44 = getelementptr inbounds nuw i8, ptr %3, i64 16
  store ptr null, ptr %44, align 8
  br label %.loopexit

.loopexit:                                        ; preds = %30, %20, %43
  %45 = getelementptr inbounds nuw i8, ptr %0, i64 24
  %46 = load ptr, ptr %45, align 8
  %47 = tail call ptr @bms_copy(ptr noundef %46) #12
  %48 = getelementptr inbounds nuw i8, ptr %3, i64 24
  store ptr %47, ptr %48, align 8
  %49 = load i32, ptr %1, align 8
  %50 = icmp eq i32 %49, 104
  %51 = select i1 %50, i32 2, i32 %13
  %52 = mul i32 %51, %6
  %53 = sext i32 %52 to i64
  %54 = shl nsw i64 %53, 3
  %55 = tail call ptr @palloc(i64 noundef %54) #12
  %56 = icmp sgt i32 %6, 0
  br i1 %56, label %.lr.ph81, label %._crit_edge82

.lr.ph81:                                         ; preds = %.loopexit
  %57 = icmp sgt i32 %51, 0
  %58 = getelementptr inbounds nuw i8, ptr %1, i64 80
  %59 = getelementptr inbounds nuw i8, ptr %1, i64 72
  %60 = getelementptr inbounds nuw i8, ptr %3, i64 16
  %61 = getelementptr inbounds nuw i8, ptr %0, i64 8
  %wide.trip.count112 = zext nneg i32 %6 to i64
  br i1 %57, label %.lr.ph81.split.us, label %.lr.ph81.split

.lr.ph81.split.us:                                ; preds = %.lr.ph81
  %wide.trip.count107 = zext nneg i32 %51 to i64
  br i1 %50, label %.lr.ph78.us.us, label %.lr.ph78.us

.lr.ph78.us.us:                                   ; preds = %.lr.ph81.split.us, %._crit_edge.split.us.us.us
  %indvars.iv109 = phi i64 [ %indvars.iv.next110, %._crit_edge.split.us.us.us ], [ 0, %.lr.ph81.split.us ]
  %62 = trunc nuw nsw i64 %indvars.iv109 to i32
  %63 = mul i32 %51, %62
  %64 = sext i32 %63 to i64
  %65 = getelementptr inbounds i64, ptr %55, i64 %64
  %66 = load ptr, ptr %17, align 8
  %67 = getelementptr inbounds nuw ptr, ptr %66, i64 %indvars.iv109
  store ptr %65, ptr %67, align 8
  br label %68

68:                                               ; preds = %88, %.lr.ph78.us.us
  %indvars.iv104 = phi i64 [ %indvars.iv.next105, %88 ], [ 0, %.lr.ph78.us.us ]
  %69 = load ptr, ptr %60, align 8
  %70 = icmp eq ptr %69, null
  br i1 %70, label %77, label %71

71:                                               ; preds = %68
  %72 = getelementptr inbounds nuw ptr, ptr %69, i64 %indvars.iv109
  %73 = load ptr, ptr %72, align 8
  %74 = getelementptr inbounds nuw i32, ptr %73, i64 %indvars.iv104
  %75 = load i32, ptr %74, align 4
  %76 = icmp eq i32 %75, 0
  br i1 %76, label %77, label %88

77:                                               ; preds = %71, %68
  %78 = load ptr, ptr %61, align 8
  %79 = getelementptr inbounds nuw ptr, ptr %78, i64 %indvars.iv109
  %80 = load ptr, ptr %79, align 8
  %81 = getelementptr inbounds nuw i64, ptr %80, i64 %indvars.iv104
  %82 = load i64, ptr %81, align 8
  %83 = tail call i64 @datumCopy(i64 noundef %82, i1 noundef zeroext true, i32 noundef 4) #12
  %84 = load ptr, ptr %17, align 8
  %85 = getelementptr inbounds nuw ptr, ptr %84, i64 %indvars.iv109
  %86 = load ptr, ptr %85, align 8
  %87 = getelementptr inbounds nuw i64, ptr %86, i64 %indvars.iv104
  store i64 %83, ptr %87, align 8
  br label %88

88:                                               ; preds = %77, %71
  %indvars.iv.next105 = add nuw nsw i64 %indvars.iv104, 1
  %exitcond108.not = icmp eq i64 %indvars.iv.next105, %wide.trip.count107
  br i1 %exitcond108.not, label %._crit_edge.split.us.us.us, label %68, !llvm.loop !34

._crit_edge.split.us.us.us:                       ; preds = %88
  %indvars.iv.next110 = add nuw nsw i64 %indvars.iv109, 1
  %exitcond113.not = icmp eq i64 %indvars.iv.next110, %wide.trip.count112
  br i1 %exitcond113.not, label %._crit_edge82, label %.lr.ph78.us.us, !llvm.loop !35

.lr.ph78.us:                                      ; preds = %.lr.ph81.split.us, %._crit_edge.split.us84
  %indvars.iv99 = phi i64 [ %indvars.iv.next100, %._crit_edge.split.us84 ], [ 0, %.lr.ph81.split.us ]
  %89 = trunc nuw nsw i64 %indvars.iv99 to i32
  %90 = mul i32 %51, %89
  %91 = sext i32 %90 to i64
  %92 = getelementptr inbounds i64, ptr %55, i64 %91
  %93 = load ptr, ptr %17, align 8
  %94 = getelementptr inbounds nuw ptr, ptr %93, i64 %indvars.iv99
  store ptr %92, ptr %94, align 8
  br label %95

95:                                               ; preds = %.lr.ph78.us, %123
  %indvars.iv94 = phi i64 [ 0, %.lr.ph78.us ], [ %indvars.iv.next95, %123 ]
  %96 = load ptr, ptr %58, align 8
  %97 = getelementptr inbounds nuw i8, ptr %96, i64 %indvars.iv94
  %98 = load i8, ptr %97, align 1, !range !6, !noundef !7
  %99 = load ptr, ptr %59, align 8
  %100 = getelementptr inbounds nuw i16, ptr %99, i64 %indvars.iv94
  %101 = load i16, ptr %100, align 2
  %102 = sext i16 %101 to i32
  %103 = trunc nuw i8 %98 to i1
  %104 = load ptr, ptr %60, align 8
  %105 = icmp eq ptr %104, null
  br i1 %105, label %112, label %106

106:                                              ; preds = %95
  %107 = getelementptr inbounds nuw ptr, ptr %104, i64 %indvars.iv99
  %108 = load ptr, ptr %107, align 8
  %109 = getelementptr inbounds nuw i32, ptr %108, i64 %indvars.iv94
  %110 = load i32, ptr %109, align 4
  %111 = icmp eq i32 %110, 0
  br i1 %111, label %112, label %123

112:                                              ; preds = %106, %95
  %113 = load ptr, ptr %61, align 8
  %114 = getelementptr inbounds nuw ptr, ptr %113, i64 %indvars.iv99
  %115 = load ptr, ptr %114, align 8
  %116 = getelementptr inbounds nuw i64, ptr %115, i64 %indvars.iv94
  %117 = load i64, ptr %116, align 8
  %118 = tail call i64 @datumCopy(i64 noundef %117, i1 noundef zeroext %103, i32 noundef %102) #12
  %119 = load ptr, ptr %17, align 8
  %120 = getelementptr inbounds nuw ptr, ptr %119, i64 %indvars.iv99
  %121 = load ptr, ptr %120, align 8
  %122 = getelementptr inbounds nuw i64, ptr %121, i64 %indvars.iv94
  store i64 %118, ptr %122, align 8
  br label %123

123:                                              ; preds = %112, %106
  %indvars.iv.next95 = add nuw nsw i64 %indvars.iv94, 1
  %exitcond98.not = icmp eq i64 %indvars.iv.next95, %wide.trip.count107
  br i1 %exitcond98.not, label %._crit_edge.split.us84, label %95, !llvm.loop !34

._crit_edge.split.us84:                           ; preds = %123
  %indvars.iv.next100 = add nuw nsw i64 %indvars.iv99, 1
  %exitcond103.not = icmp eq i64 %indvars.iv.next100, %wide.trip.count112
  br i1 %exitcond103.not, label %._crit_edge82, label %.lr.ph78.us, !llvm.loop !35

.lr.ph81.split:                                   ; preds = %.lr.ph81, %.lr.ph81.split
  %indvars.iv89 = phi i64 [ %indvars.iv.next90, %.lr.ph81.split ], [ 0, %.lr.ph81 ]
  %124 = trunc nuw nsw i64 %indvars.iv89 to i32
  %125 = mul i32 %51, %124
  %126 = sext i32 %125 to i64
  %127 = getelementptr inbounds i64, ptr %55, i64 %126
  %128 = load ptr, ptr %17, align 8
  %129 = getelementptr inbounds nuw ptr, ptr %128, i64 %indvars.iv89
  store ptr %127, ptr %129, align 8
  %indvars.iv.next90 = add nuw nsw i64 %indvars.iv89, 1
  %exitcond93.not = icmp eq i64 %indvars.iv.next90, %wide.trip.count112
  br i1 %exitcond93.not, label %._crit_edge82, label %.lr.ph81.split, !llvm.loop !35

._crit_edge82:                                    ; preds = %.lr.ph81.split, %._crit_edge.split.us84, %._crit_edge.split.us.us.us, %.loopexit
  %130 = sext i32 %9 to i64
  %131 = shl nsw i64 %130, 2
  %132 = tail call ptr @palloc(i64 noundef %131) #12
  %133 = getelementptr inbounds nuw i8, ptr %3, i64 40
  store ptr %132, ptr %133, align 8
  %134 = getelementptr inbounds nuw i8, ptr %0, i64 40
  %135 = load ptr, ptr %134, align 8
  tail call void @llvm.memcpy.p0.p0.i64(ptr align 4 %132, ptr align 4 %135, i64 %131, i1 false)
  %136 = getelementptr inbounds nuw i8, ptr %0, i64 48
  %137 = load i32, ptr %136, align 8
  %138 = getelementptr inbounds nuw i8, ptr %3, i64 48
  store i32 %137, ptr %138, align 8
  %139 = getelementptr inbounds nuw i8, ptr %0, i64 52
  %140 = load i32, ptr %139, align 4
  %141 = getelementptr inbounds nuw i8, ptr %3, i64 52
  store i32 %140, ptr %141, align 4
  ret ptr %3
}